; Function Attrs: mustprogress uwtable
define hidden void @_ZN18macro_substitution7cleanupEv(ptr noundef nonnull align 8 dereferenceable(49) %0) local_unnamed_addr #3 align 2 {
  %2 = load ptr, ptr %0, align 8, !tbaa !98
  %3 = getelementptr inbounds nuw i8, ptr %0, i64 8
  tail call void @_Z22dec_ref_map_key_valuesI11ast_managerS0_7obj_mapI9func_declP10quantifierEEvRT_RT0_RT1_(ptr noundef nonnull align 8 dereferenceable(976) %2, ptr noundef nonnull align 8 dereferenceable(976) %2, ptr noundef nonnull align 8 dereferenceable(24) %3)
  %4 = getelementptr inbounds nuw i8, ptr %0, i64 48
  %5 = load i8, ptr %4, align 8
  %6 = and i8 %5, 2
  %.not.i = icmp eq i8 %6, 0
  br i1 %.not.i, label %11, label %7

7:                                                ; preds = %1
  %8 = load ptr, ptr %0, align 8, !tbaa !98
  %9 = getelementptr inbounds nuw i8, ptr %0, i64 32
  %10 = load ptr, ptr %9, align 8, !tbaa !13
  tail call void @_Z18dec_ref_map_valuesI11ast_manager7obj_mapI9func_declP3appEEvRT_RT0_(ptr noundef nonnull align 8 dereferenceable(976) %8, ptr noundef nonnull align 8 dereferenceable(24) %10)
  %.pre.i = load i8, ptr %4, align 8
  br label %11

11:                                               ; preds = %7, %1
  %12 = phi i8 [ %.pre.i, %7 ], [ %5, %1 ]
  %13 = and i8 %12, 1
  %.not1.i = icmp eq i8 %13, 0
  br i1 %.not1.i, label %_ZN18macro_substitution5resetEv.exit, label %14

14:                                               ; preds = %11
  %15 = load ptr, ptr %0, align 8, !tbaa !98
  %16 = getelementptr inbounds nuw i8, ptr %0, i64 40
  %17 = load ptr, ptr %16, align 8, !tbaa !22
  tail call void @_Z18dec_ref_map_valuesI11ast_manager7obj_mapI9func_declPN18dependency_managerINS0_22expr_dependency_configEE10dependencyEEEvRT_RT0_(ptr noundef nonnull align 8 dereferenceable(976) %15, ptr noundef nonnull align 8 dereferenceable(24) %17)
  br label %_ZN18macro_substitution5resetEv.exit

_ZN18macro_substitution5resetEv.exit:             ; preds = %11, %14
  tail call void @_ZN14core_hashtableIN7obj_mapI9func_declP10quantifierE13obj_map_entryE8obj_hashINS4_8key_dataEE10default_eqIS7_EE8finalizeEv(ptr noundef nonnull align 8 dereferenceable(24) %3)
  %18 = load i8, ptr %4, align 8
  %19 = and i8 %18, 2
  %.not = icmp eq i8 %19, 0
  br i1 %.not, label %23, label %20

20:                                               ; preds = %_ZN18macro_substitution5resetEv.exit
  %21 = getelementptr inbounds nuw i8, ptr %0, i64 32
  %22 = load ptr, ptr %21, align 8, !tbaa !13
  tail call void @_ZN14core_hashtableIN7obj_mapI9func_declP3appE13obj_map_entryE8obj_hashINS4_8key_dataEE10default_eqIS7_EE8finalizeEv(ptr noundef nonnull align 8 dereferenceable(24) %22)
  %.pre = load i8, ptr %4, align 8
  br label %23

23:                                               ; preds = %20, %_ZN18macro_substitution5resetEv.exit
  %24 = phi i8 [ %.pre, %20 ], [ %18, %_ZN18macro_substitution5resetEv.exit ]
  %25 = and i8 %24, 1
  %.not1 = icmp eq i8 %25, 0
  br i1 %.not1, label %29, label %26

26:                                               ; preds = %23
  %27 = getelementptr inbounds nuw i8, ptr %0, i64 40
  %28 = load ptr, ptr %27, align 8, !tbaa !22
  tail call void @_ZN14core_hashtableIN7obj_mapI9func_declPN18dependency_managerIN11ast_manager22expr_dependency_configEE10dependencyEE13obj_map_entryE8obj_hashINS8_8key_dataEE10default_eqISB_EE8finalizeEv(ptr noundef nonnull align 8 dereferenceable(24) %28)
  br label %29

29:                                               ; preds = %26, %23
  ret void
}